; Function Attrs: null_pointer_is_valid sspstrong uwtable
define internal i32 @dissect_mms_T_listOfData(i1 noundef zeroext %0, ptr noundef %1, i32 noundef %2, ptr noundef %3, ptr noundef %4, i32 noundef %5) #0 {
  %7 = getelementptr inbounds nuw i8, ptr %3, i64 48
  %8 = load ptr, ptr %7, align 8
  %.not = icmp eq ptr %8, null
  br i1 %.not, label %.thread, label %11

.thread:                                          ; preds = %6
  %9 = load i32, ptr @ett_mms_T_listOfData, align 4
  %10 = tail call i32 @dissect_ber_sequence_of(i1 noundef zeroext %0, ptr noundef %3, ptr noundef %4, ptr noundef %1, i32 noundef %2, ptr noundef nonnull @T_listOfData_sequence_of, i32 noundef %5, i32 noundef %9)
  br label %15

11:                                               ; preds = %6
  %12 = getelementptr inbounds nuw i8, ptr %8, i64 16
  store i32 0, ptr %12, align 8
  %13 = load i32, ptr @ett_mms_T_listOfData, align 4
  %14 = tail call i32 @dissect_ber_sequence_of(i1 noundef zeroext %0, ptr noundef %3, ptr noundef %4, ptr noundef %1, i32 noundef %2, ptr noundef nonnull @T_listOfData_sequence_of, i32 noundef %5, i32 noundef %13)
  store i32 0, ptr %12, align 8
  br label %15

15:                                               ; preds = %.thread, %11
  %16 = phi i32 [ %10, %.thread ], [ %14, %11 ]
  ret i32 %16
}